target datalayout = "e-m:e-p270:32:32-p271:32:32-p272:64:64-i64:64-i128:128-f80:128-n8:16:32:64-S128"
target triple = "x86_64-pc-linux-gnu"

%"struct.icu_77::FormattedStringBuilder::Field" = type { i8 }
%"class.icu_77::SimpleFormatter" = type { [8 x i8], %"class.icu_77::UnicodeString" }
%"class.icu_77::UnicodeString" = type { %"class.icu_77::Replaceable", %"union.icu_77::UnicodeString::StackBufferOrFields" }
%"class.icu_77::Replaceable" = type { %"class.icu_77::UObject" }
%"class.icu_77::UObject" = type { ptr }
%"union.icu_77::UnicodeString::StackBufferOrFields" = type { %struct.anon.0, [32 x i8] }
%struct.anon.0 = type { i16, i32, i32, ptr }
%"class.icu_77::MeasureUnit" = type <{ %"class.icu_77::UObject", ptr, i16, i8, [5 x i8] }>
%"class.icu_77::number::Precision" = type <{ i32, [4 x i8], %"union.icu_77::number::Precision::PrecisionUnion", i32, [4 x i8] }>
%"union.icu_77::number::Precision::PrecisionUnion" = type { %"struct.icu_77::number::Precision::PrecisionUnion::IncrementSettings" }
%"struct.icu_77::number::Precision::PrecisionUnion::IncrementSettings" = type { i64, i16, i16 }
%"class.icu_77::number::impl::Grouper" = type { i16, i16, i16, i32 }
%"class.icu_77::number::impl::Padder" = type { i32, %union.anon }
%union.anon = type { %struct.anon.1 }
%struct.anon.1 = type { i32, i32 }
%"class.icu_77::number::IntegerWidth" = type <{ %union.anon.2, i8, [3 x i8] }>
%union.anon.2 = type { i32, [4 x i8] }
%"class.icu_77::number::Scale" = type <{ i32, [4 x i8], ptr, i32, [4 x i8] }>
%"class.icu_77::StandardPluralRanges" = type { %"class.icu_77::MaybeStackArray.28", i32, [4 x i8] }
%"class.icu_77::MaybeStackArray.28" = type <{ ptr, i32, i8, [3 x i8], [3 x %"struct.icu_77::StandardPluralRanges::StandardPluralRangeTriple"], [4 x i8] }>
%"struct.icu_77::StandardPluralRanges::StandardPluralRangeTriple" = type { i32, i32, i32 }
%"class.icu_77::number::impl::NumberRangeFormatterImpl" = type { [8 x i8], %"class.icu_77::number::impl::NumberFormatterImpl", %"class.icu_77::number::impl::NumberFormatterImpl", i8, i32, i32, %"class.icu_77::SimpleFormatter", %"class.icu_77::number::impl::NumberFormatterImpl", %"class.icu_77::StandardPluralRanges" }
%"class.icu_77::number::impl::NumberFormatterImpl" = type { ptr, %"struct.icu_77::number::impl::MicroProps", %"class.icu_77::LocalPointer", %"class.icu_77::LocalPointer.6", %"class.icu_77::LocalPointer.8", %"class.icu_77::LocalPointer.10", %"class.icu_77::LocalPointer.12", %"class.icu_77::LocalPointer.14", %"class.icu_77::LocalPointer.16", %"class.icu_77::LocalPointer.18", %"class.icu_77::LocalPointer.20", %"class.icu_77::LocalPointer.22", %"class.icu_77::LocalPointer.24", %"class.icu_77::LocalPointer.26" }
%"struct.icu_77::number::impl::MicroProps" = type <{ %"class.icu_77::number::impl::MicroPropsGenerator", %"struct.icu_77::number::impl::SimpleMicroProps", %"class.icu_77::number::impl::RoundingImpl", %"class.icu_77::number::impl::Padder", %"class.icu_77::number::IntegerWidth", i32, [9 x i8], [3 x i8], ptr, ptr, ptr, ptr, %struct.anon.4, %"class.icu_77::MeasureUnit", %"class.icu_77::number::impl::IntMeasures", i32, i32, i8, [7 x i8] }>
%"class.icu_77::number::impl::MicroPropsGenerator" = type { ptr }
%"struct.icu_77::number::impl::SimpleMicroProps" = type { [4 x i8], %"class.icu_77::number::impl::Grouper", i8, i32, %"class.icu_77::UnicodeString", ptr }
%"class.icu_77::number::impl::RoundingImpl" = type <{ %"class.icu_77::number::Precision", i32, i8, [3 x i8] }>
%struct.anon.4 = type { %"class.icu_77::number::impl::ScientificModifier", %"class.icu_77::number::impl::EmptyModifier", %"class.icu_77::number::impl::EmptyModifier", %"class.icu_77::number::impl::MultiplierFormatHandler", %"class.icu_77::number::impl::SimpleModifier" }
%"class.icu_77::number::impl::ScientificModifier" = type { %"class.icu_77::number::impl::Modifier", i32, ptr }
%"class.icu_77::number::impl::Modifier" = type { ptr }
%"class.icu_77::number::impl::EmptyModifier" = type <{ %"class.icu_77::number::impl::Modifier", i8, [7 x i8] }>
%"class.icu_77::number::impl::MultiplierFormatHandler" = type { %"class.icu_77::number::impl::MicroPropsGenerator", %"class.icu_77::number::Scale", ptr }
%"class.icu_77::number::impl::SimpleModifier" = type { %"class.icu_77::number::impl::Modifier", %"class.icu_77::UnicodeString", %"struct.icu_77::FormattedStringBuilder::Field", i8, i32, i32, i32, %"struct.icu_77::number::impl::Modifier::Parameters" }
%"struct.icu_77::number::impl::Modifier::Parameters" = type { ptr, i32, i32 }
%"class.icu_77::number::impl::IntMeasures" = type <{ %"class.icu_77::MaybeStackArray.5", i32, [4 x i8] }>
%"class.icu_77::MaybeStackArray.5" = type { ptr, i32, i8, [2 x i64] }
%"class.icu_77::LocalPointer" = type { %"class.icu_77::LocalPointerBase" }
%"class.icu_77::LocalPointerBase" = type { ptr }
%"class.icu_77::LocalPointer.6" = type { %"class.icu_77::LocalPointerBase.7" }
%"class.icu_77::LocalPointerBase.7" = type { ptr }
%"class.icu_77::LocalPointer.8" = type { %"class.icu_77::LocalPointerBase.9" }
%"class.icu_77::LocalPointerBase.9" = type { ptr }
%"class.icu_77::LocalPointer.10" = type { %"class.icu_77::LocalPointerBase.11" }
%"class.icu_77::LocalPointerBase.11" = type { ptr }
%"class.icu_77::LocalPointer.12" = type { %"class.icu_77::LocalPointerBase.13" }
%"class.icu_77::LocalPointerBase.13" = type { ptr }
%"class.icu_77::LocalPointer.14" = type { %"class.icu_77::LocalPointerBase.15" }
%"class.icu_77::LocalPointerBase.15" = type { ptr }
%"class.icu_77::LocalPointer.16" = type { %"class.icu_77::LocalPointerBase.17" }
%"class.icu_77::LocalPointerBase.17" = type { ptr }
%"class.icu_77::LocalPointer.18" = type { %"class.icu_77::LocalPointerBase.19" }
%"class.icu_77::LocalPointerBase.19" = type { ptr }
%"class.icu_77::LocalPointer.20" = type { %"class.icu_77::LocalPointerBase.21" }
%"class.icu_77::LocalPointerBase.21" = type { ptr }
%"class.icu_77::LocalPointer.22" = type { %"class.icu_77::LocalPointerBase.23" }
%"class.icu_77::LocalPointerBase.23" = type { ptr }
%"class.icu_77::LocalPointer.24" = type { %"class.icu_77::LocalPointerBase.25" }
%"class.icu_77::LocalPointerBase.25" = type { ptr }
%"class.icu_77::LocalPointer.26" = type { %"class.icu_77::LocalPointerBase.27" }
%"class.icu_77::LocalPointerBase.27" = type { ptr }
%"class.icu_77::number::impl::UFormattedNumberRangeData" = type { %"class.icu_77::FormattedValueStringBuilderImpl.base", [4 x i8], %"class.icu_77::number::impl::DecimalQuantity", %"class.icu_77::number::impl::DecimalQuantity", i32, [4 x i8] }
%"class.icu_77::FormattedValueStringBuilderImpl.base" = type <{ %"class.icu_77::FormattedValue", %"class.icu_77::FormattedStringBuilder", %"struct.icu_77::FormattedStringBuilder::Field", [7 x i8], %"class.icu_77::MaybeStackArray.34", i32 }>
%"class.icu_77::FormattedValue" = type { ptr }
%"class.icu_77::FormattedStringBuilder" = type { i8, %"union.icu_77::FormattedStringBuilder::ValueOrHeapArray", %"union.icu_77::FormattedStringBuilder::ValueOrHeapArray.32", i32, i32 }
%"union.icu_77::FormattedStringBuilder::ValueOrHeapArray" = type { %struct.anon.31, [64 x i8] }
%struct.anon.31 = type { ptr, i32 }
%"union.icu_77::FormattedStringBuilder::ValueOrHeapArray.32" = type { %struct.anon.33, [24 x i8] }
%struct.anon.33 = type { ptr, i32 }
%"class.icu_77::MaybeStackArray.34" = type { ptr, i32, i8, [8 x %"struct.icu_77::SpanInfo"] }
%"struct.icu_77::SpanInfo" = type { i32, i32, i32, i32 }
%"class.icu_77::number::impl::DecimalQuantity" = type <{ %"class.icu_77::IFixedDecimal", i8, [3 x i8], i32, i32, i8, i8, [2 x i8], double, i32, i32, i32, i32, %union.anon.35, i8, i8, [6 x i8] }>
%"class.icu_77::IFixedDecimal" = type { ptr }
%union.anon.35 = type { %struct.anon.36 }
%struct.anon.36 = type { ptr, i32 }
%"class.icu_77::FormattedValueStringBuilderImpl" = type <{ %"class.icu_77::FormattedValue", %"class.icu_77::FormattedStringBuilder", %"struct.icu_77::FormattedStringBuilder::Field", [7 x i8], %"class.icu_77::MaybeStackArray.34", i32, [4 x i8] }>

; Function Attrs: inlinehint mustprogress nounwind uwtable
define linkonce_odr noundef nonnull align 8 dereferenceable(136) ptr @_ZN6icu_7731FormattedValueStringBuilderImpl12getStringRefEv(ptr noundef nonnull align 8 dereferenceable(300) %0) #2 comdat align 2 {
  %2 = alloca ptr, align 8
  store ptr %0, ptr %2, align 8, !tbaa !177
  %3 = load ptr, ptr %2, align 8
  %4 = getelementptr inbounds nuw %"class.icu_77::FormattedValueStringBuilderImpl", ptr %3, i32 0, i32 1
  ret ptr %4
}

; Function Attrs: inlinehint mustprogress nounwind uwtable
define internal noundef signext i8 @_ZL9U_FAILURE10UErrorCode(i32 noundef %0) #2 {
  %2 = alloca i32, align 4
  store i32 %0, ptr %2, align 4, !tbaa !15
  %3 = load i32, ptr %2, align 4, !tbaa !15
  %4 = icmp sgt i32 %3, 0
  %5 = zext i1 %4 to i8
  ret i8 %5
}

; Function Attrs: mustprogress uwtable
define void @_ZNK6icu_776number4impl24NumberRangeFormatterImpl19formatApproximatelyERNS1_25UFormattedNumberRangeDataERNS1_10MicroPropsES6_R10UErrorCode(ptr noundef nonnull align 8 dereferenceable(1960) %0, ptr noundef nonnull align 8 dereferenceable(452) %1, ptr noundef nonnull align 8 dereferenceable(489) %2, ptr noundef nonnull align 8 dereferenceable(489) %3, ptr noundef nonnull align 4 dereferenceable(4) %4) #1 align 2 personality ptr @__gxx_personality_v0 {
  %6 = alloca ptr, align 8
  %7 = alloca ptr, align 8
  %8 = alloca ptr, align 8
  %9 = alloca ptr, align 8
  %10 = alloca ptr, align 8
  %11 = alloca %"struct.icu_77::number::impl::MicroProps", align 8
  %12 = alloca ptr, align 8
  %13 = alloca i32, align 4
  %14 = alloca i32, align 4
  store ptr %0, ptr %6, align 8, !tbaa !23
  store ptr %1, ptr %7, align 8, !tbaa !146
  store ptr %2, ptr %8, align 8, !tbaa !163
  store ptr %3, ptr %9, align 8, !tbaa !163
  store ptr %4, ptr %10, align 8, !tbaa !22
  %15 = load ptr, ptr %6, align 8
  %16 = load ptr, ptr %10, align 8, !tbaa !22
  %17 = load i32, ptr %16, align 4, !tbaa !15
  %18 = call noundef signext i8 @_ZL9U_FAILURE10UErrorCode(i32 noundef %17)
  %19 = icmp ne i8 %18, 0
  br i1 %19, label %20, label %21

20:                                               ; preds = %5
  br label %97

21:                                               ; preds = %5
  %22 = getelementptr inbounds nuw %"class.icu_77::number::impl::NumberRangeFormatterImpl", ptr %15, i32 0, i32 3
  %23 = load i8, ptr %22, align 8, !tbaa !62, !range !60, !noundef !61
  %24 = trunc i8 %23 to i1
  br i1 %24, label %25, label %92

25:                                               ; preds = %21
  call void @llvm.lifetime.start.p0(i64 496, ptr %11) #14
  call void @_ZN6icu_776number4impl10MicroPropsC2Ev(ptr noundef nonnull align 8 dereferenceable(489) %11)
  %26 = load ptr, ptr %7, align 8, !tbaa !146
  %27 = getelementptr inbounds nuw %"class.icu_77::number::impl::UFormattedNumberRangeData", ptr %26, i32 0, i32 2
  invoke void @_ZN6icu_776number4impl15DecimalQuantity13resetExponentEv(ptr noundef nonnull align 8 dereferenceable(66) %27)
          to label %28 unwind label %83

28:                                               ; preds = %25
  %29 = getelementptr inbounds nuw %"class.icu_77::number::impl::NumberRangeFormatterImpl", ptr %15, i32 0, i32 7
  %30 = load ptr, ptr %7, align 8, !tbaa !146
  %31 = getelementptr inbounds nuw %"class.icu_77::number::impl::UFormattedNumberRangeData", ptr %30, i32 0, i32 2
  %32 = load ptr, ptr %10, align 8, !tbaa !22
  invoke void @_ZNK6icu_776number4impl19NumberFormatterImpl10preProcessERNS1_15DecimalQuantityERNS1_10MicroPropsER10UErrorCode(ptr noundef nonnull align 8 dereferenceable(600) %29, ptr noundef nonnull align 8 dereferenceable(66) %31, ptr noundef nonnull align 8 dereferenceable(489) %11, ptr noundef nonnull align 4 dereferenceable(4) %32)
          to label %33 unwind label %83

33:                                               ; preds = %28
  call void @llvm.lifetime.start.p0(i64 4, ptr %14) #14
  %34 = getelementptr inbounds nuw %"struct.icu_77::number::impl::MicroProps", ptr %11, i32 0, i32 1
  %35 = load ptr, ptr %7, align 8, !tbaa !146
  %36 = getelementptr inbounds nuw %"class.icu_77::number::impl::UFormattedNumberRangeData", ptr %35, i32 0, i32 2
  %37 = load ptr, ptr %7, align 8, !tbaa !146
  %38 = invoke noundef nonnull align 8 dereferenceable(136) ptr @_ZN6icu_7731FormattedValueStringBuilderImpl12getStringRefEv(ptr noundef nonnull align 8 dereferenceable(300) %37)
          to label %39 unwind label %87

39:                                               ; preds = %33
  %40 = load ptr, ptr %10, align 8, !tbaa !22
  %41 = invoke noundef i32 @_ZN6icu_776number4impl19NumberFormatterImpl11writeNumberERKNS1_16SimpleMicroPropsERNS1_15DecimalQuantityERNS_22FormattedStringBuilderEiR10UErrorCode(ptr noundef nonnull align 8 dereferenceable(96) %34, ptr noundef nonnull align 8 dereferenceable(66) %36, ptr noundef nonnull align 8 dereferenceable(136) %38, i32 noundef 0, ptr noundef nonnull align 4 dereferenceable(4) %40)
          to label %42 unwind label %87

42:                                               ; preds = %39
  store i32 %41, ptr %14, align 4, !tbaa !14
  %43 = getelementptr inbounds nuw %"struct.icu_77::number::impl::MicroProps", ptr %11, i32 0, i32 11
  %44 = load ptr, ptr %43, align 8, !tbaa !149
  %45 = load ptr, ptr %7, align 8, !tbaa !146
  %46 = invoke noundef nonnull align 8 dereferenceable(136) ptr @_ZN6icu_7731FormattedValueStringBuilderImpl12getStringRefEv(ptr noundef nonnull align 8 dereferenceable(300) %45)
          to label %47 unwind label %87

47:                                               ; preds = %42
  %48 = load i32, ptr %14, align 4, !tbaa !14
  %49 = load ptr, ptr %10, align 8, !tbaa !22
  %50 = load ptr, ptr %44, align 8, !tbaa !165
  %51 = getelementptr inbounds ptr, ptr %50, i64 2
  %52 = load ptr, ptr %51, align 8
  %53 = invoke noundef i32 %52(ptr noundef nonnull align 8 dereferenceable(8) %44, ptr noundef nonnull align 8 dereferenceable(136) %46, i32 noundef 0, i32 noundef %48, ptr noundef nonnull align 4 dereferenceable(4) %49)
          to label %54 unwind label %87

54:                                               ; preds = %47
  %55 = load i32, ptr %14, align 4, !tbaa !14
  %56 = add nsw i32 %55, %53
  store i32 %56, ptr %14, align 4, !tbaa !14
  %57 = getelementptr inbounds nuw %"struct.icu_77::number::impl::MicroProps", ptr %11, i32 0, i32 10
  %58 = load ptr, ptr %57, align 8, !tbaa !150
  %59 = load ptr, ptr %7, align 8, !tbaa !146
  %60 = invoke noundef nonnull align 8 dereferenceable(136) ptr @_ZN6icu_7731FormattedValueStringBuilderImpl12getStringRefEv(ptr noundef nonnull align 8 dereferenceable(300) %59)
          to label %61 unwind label %87

61:                                               ; preds = %54
  %62 = load i32, ptr %14, align 4, !tbaa !14
  %63 = load ptr, ptr %10, align 8, !tbaa !22
  %64 = load ptr, ptr %58, align 8, !tbaa !165
  %65 = getelementptr inbounds ptr, ptr %64, i64 2
  %66 = load ptr, ptr %65, align 8
  %67 = invoke noundef i32 %66(ptr noundef nonnull align 8 dereferenceable(8) %58, ptr noundef nonnull align 8 dereferenceable(136) %60, i32 noundef 0, i32 noundef %62, ptr noundef nonnull align 4 dereferenceable(4) %63)
          to label %68 unwind label %87

68:                                               ; preds = %61
  %69 = load i32, ptr %14, align 4, !tbaa !14
  %70 = add nsw i32 %69, %67
  store i32 %70, ptr %14, align 4, !tbaa !14
  %71 = getelementptr inbounds nuw %"struct.icu_77::number::impl::MicroProps", ptr %11, i32 0, i32 9
  %72 = load ptr, ptr %71, align 8, !tbaa !151
  %73 = load ptr, ptr %7, align 8, !tbaa !146
  %74 = invoke noundef nonnull align 8 dereferenceable(136) ptr @_ZN6icu_7731FormattedValueStringBuilderImpl12getStringRefEv(ptr noundef nonnull align 8 dereferenceable(300) %73)
          to label %75 unwind label %87

75:                                               ; preds = %68
  %76 = load i32, ptr %14, align 4, !tbaa !14
  %77 = load ptr, ptr %10, align 8, !tbaa !22
  %78 = load ptr, ptr %72, align 8, !tbaa !165
  %79 = getelementptr inbounds ptr, ptr %78, i64 2
  %80 = load ptr, ptr %79, align 8
  %81 = invoke noundef i32 %80(ptr noundef nonnull align 8 dereferenceable(8) %72, ptr noundef nonnull align 8 dereferenceable(136) %74, i32 noundef 0, i32 noundef %76, ptr noundef nonnull align 4 dereferenceable(4) %77)
          to label %82 unwind label %87

82:                                               ; preds = %75
  call void @llvm.lifetime.end.p0(i64 4, ptr %14) #14
  call void @_ZN6icu_776number4impl10MicroPropsD2Ev(ptr noundef nonnull align 8 dereferenceable(489) %11) #14
  call void @llvm.lifetime.end.p0(i64 496, ptr %11) #14
  br label %97

83:                                               ; preds = %28, %25
  %84 = landingpad { ptr, i32 }
          cleanup
  %85 = extractvalue { ptr, i32 } %84, 0
  store ptr %85, ptr %12, align 8
  %86 = extractvalue { ptr, i32 } %84, 1
  store i32 %86, ptr %13, align 4
  br label %91

87:                                               ; preds = %75, %68, %61, %54, %47, %42, %39, %33
  %88 = landingpad { ptr, i32 }
          cleanup
  %89 = extractvalue { ptr, i32 } %88, 0
  store ptr %89, ptr %12, align 8
  %90 = extractvalue { ptr, i32 } %88, 1
  store i32 %90, ptr %13, align 4
  call void @llvm.lifetime.end.p0(i64 4, ptr %14) #14
  br label %91

91:                                               ; preds = %87, %83
  call void @_ZN6icu_776number4impl10MicroPropsD2Ev(ptr noundef nonnull align 8 dereferenceable(489) %11) #14
  call void @llvm.lifetime.end.p0(i64 496, ptr %11) #14
  br label %98

92:                                               ; preds = %21
  %93 = load ptr, ptr %7, align 8, !tbaa !146
  %94 = load ptr, ptr %8, align 8, !tbaa !163
  %95 = load ptr, ptr %9, align 8, !tbaa !163
  %96 = load ptr, ptr %10, align 8, !tbaa !22
  call void @_ZNK6icu_776number4impl24NumberRangeFormatterImpl11formatRangeERNS1_25UFormattedNumberRangeDataERNS1_10MicroPropsES6_R10UErrorCode(ptr noundef nonnull align 8 dereferenceable(1960) %15, ptr noundef nonnull align 8 dereferenceable(452) %93, ptr noundef nonnull align 8 dereferenceable(489) %94, ptr noundef nonnull align 8 dereferenceable(489) %95, ptr noundef nonnull align 4 dereferenceable(4) %96)
  br label %97

97:                                               ; preds = %20, %92, %82
  ret void

98:                                               ; preds = %91
  %99 = load ptr, ptr %12, align 8
  %100 = load i32, ptr %13, align 4
  %101 = insertvalue { ptr, i32 } poison, ptr %99, 0
  %102 = insertvalue { ptr, i32 } %101, i32 %100, 1
  resume { ptr, i32 } %102
}