; Function Attrs: mustprogress uwtable
define void @_ZNK6icu_776number4impl24NumberRangeFormatterImpl19formatApproximatelyERNS1_25UFormattedNumberRangeDataERNS1_10MicroPropsES6_R10UErrorCode(ptr noundef nonnull align 8 dereferenceable(1960) %0, ptr noundef nonnull align 8 dereferenceable(452) %1, ptr noundef nonnull align 8 dereferenceable(489) %2, ptr noundef nonnull align 8 dereferenceable(489) %3, ptr noundef nonnull align 4 dereferenceable(4) %4) local_unnamed_addr #1 align 2 personality ptr @__gxx_personality_v0 {
  %6 = alloca %"struct.icu_77::number::impl::MicroProps", align 8
  %7 = load i32, ptr %4, align 4, !tbaa !13
  %8 = icmp slt i32 %7, 1
  br i1 %8, label %9, label %51

9:                                                ; preds = %5
  %10 = getelementptr inbounds nuw i8, ptr %0, i64 1208
  %11 = load i8, ptr %10, align 8, !tbaa !50, !range !48, !noundef !49
  %12 = trunc nuw i8 %11 to i1
  br i1 %12, label %13, label %50

13:                                               ; preds = %9
  call void @llvm.lifetime.start.p0(i64 496, ptr nonnull %6) #16
  call void @_ZN6icu_776number4impl10MicroPropsC2Ev(ptr noundef nonnull align 8 dereferenceable(489) %6)
  %14 = getelementptr inbounds nuw i8, ptr %1, i64 304
  invoke void @_ZN6icu_776number4impl15DecimalQuantity13resetExponentEv(ptr noundef nonnull align 8 dereferenceable(66) %14)
          to label %15 unwind label %45

15:                                               ; preds = %13
  %16 = getelementptr inbounds nuw i8, ptr %0, i64 1296
  invoke void @_ZNK6icu_776number4impl19NumberFormatterImpl10preProcessERNS1_15DecimalQuantityERNS1_10MicroPropsER10UErrorCode(ptr noundef nonnull align 8 dereferenceable(600) %16, ptr noundef nonnull align 8 dereferenceable(66) %14, ptr noundef nonnull align 8 dereferenceable(489) %6, ptr noundef nonnull align 4 dereferenceable(4) %4)
          to label %17 unwind label %45

17:                                               ; preds = %15
  %18 = getelementptr inbounds nuw i8, ptr %6, i64 8
  %19 = getelementptr inbounds nuw i8, ptr %1, i64 8
  %20 = invoke noundef i32 @_ZN6icu_776number4impl19NumberFormatterImpl11writeNumberERKNS1_16SimpleMicroPropsERNS1_15DecimalQuantityERNS_22FormattedStringBuilderEiR10UErrorCode(ptr noundef nonnull align 8 dereferenceable(96) %18, ptr noundef nonnull align 8 dereferenceable(66) %14, ptr noundef nonnull align 8 dereferenceable(136) %19, i32 noundef 0, ptr noundef nonnull align 4 dereferenceable(4) %4)
          to label %21 unwind label %47

21:                                               ; preds = %17
  %22 = getelementptr inbounds nuw i8, ptr %6, i64 208
  %23 = load ptr, ptr %22, align 8, !tbaa !152
  %24 = load ptr, ptr %23, align 8, !tbaa !127
  %25 = getelementptr inbounds nuw i8, ptr %24, i64 16
  %26 = load ptr, ptr %25, align 8
  %27 = invoke noundef i32 %26(ptr noundef nonnull align 8 dereferenceable(8) %23, ptr noundef nonnull align 8 dereferenceable(136) %19, i32 noundef 0, i32 noundef %20, ptr noundef nonnull align 4 dereferenceable(4) %4)
          to label %28 unwind label %47

28:                                               ; preds = %21
  %29 = add nsw i32 %27, %20
  %30 = getelementptr inbounds nuw i8, ptr %6, i64 200
  %31 = load ptr, ptr %30, align 8, !tbaa !153
  %32 = load ptr, ptr %31, align 8, !tbaa !127
  %33 = getelementptr inbounds nuw i8, ptr %32, i64 16
  %34 = load ptr, ptr %33, align 8
  %35 = invoke noundef i32 %34(ptr noundef nonnull align 8 dereferenceable(8) %31, ptr noundef nonnull align 8 dereferenceable(136) %19, i32 noundef 0, i32 noundef %29, ptr noundef nonnull align 4 dereferenceable(4) %4)
          to label %36 unwind label %47

36:                                               ; preds = %28
  %37 = add nsw i32 %35, %29
  %38 = getelementptr inbounds nuw i8, ptr %6, i64 192
  %39 = load ptr, ptr %38, align 8, !tbaa !154
  %40 = load ptr, ptr %39, align 8, !tbaa !127
  %41 = getelementptr inbounds nuw i8, ptr %40, i64 16
  %42 = load ptr, ptr %41, align 8
  %43 = invoke noundef i32 %42(ptr noundef nonnull align 8 dereferenceable(8) %39, ptr noundef nonnull align 8 dereferenceable(136) %19, i32 noundef 0, i32 noundef %37, ptr noundef nonnull align 4 dereferenceable(4) %4)
          to label %44 unwind label %47

44:                                               ; preds = %36
  call void @_ZN6icu_776number4impl10MicroPropsD2Ev(ptr noundef nonnull align 8 dereferenceable(489) %6) #16
  call void @llvm.lifetime.end.p0(i64 496, ptr nonnull %6) #16
  br label %51

45:                                               ; preds = %15, %13
  %46 = landingpad { ptr, i32 }
          cleanup
  br label %49

47:                                               ; preds = %36, %28, %21, %17
  %48 = landingpad { ptr, i32 }
          cleanup
  br label %49

49:                                               ; preds = %47, %45
  %.pn = phi { ptr, i32 } [ %48, %47 ], [ %46, %45 ]
  call void @_ZN6icu_776number4impl10MicroPropsD2Ev(ptr noundef nonnull align 8 dereferenceable(489) %6) #16
  call void @llvm.lifetime.end.p0(i64 496, ptr nonnull %6) #16
  resume { ptr, i32 } %.pn

50:                                               ; preds = %9
  tail call void @_ZNK6icu_776number4impl24NumberRangeFormatterImpl11formatRangeERNS1_25UFormattedNumberRangeDataERNS1_10MicroPropsES6_R10UErrorCode(ptr noundef nonnull align 8 dereferenceable(1960) %0, ptr noundef nonnull align 8 dereferenceable(452) %1, ptr noundef nonnull align 8 dereferenceable(489) %2, ptr noundef nonnull align 8 dereferenceable(489) %3, ptr noundef nonnull align 4 dereferenceable(4) %4)
  br label %51

51:                                               ; preds = %5, %50, %44
  ret void
}